target datalayout = "e-m:e-p270:32:32-p271:32:32-p272:64:64-i64:64-i128:128-f80:128-n8:16:32:64-S128"
target triple = "x86_64-pc-linux-gnu"

%struct.AVCodecContext = type { ptr, i32, i32, ptr, i32, i32, ptr, ptr, ptr, i64, i32, i32, ptr, i32, %struct.AVRational, %struct.AVRational, %struct.AVRational, i32, i32, i32, i32, i32, %struct.AVRational, i32, i32, i32, i32, i32, i32, i32, i32, i32, i32, i32, ptr, ptr, i32, float, float, float, float, float, float, float, float, float, i32, i32, i32, i32, i32, i32, i32, i32, i32, i32, i32, i32, ptr, ptr, ptr, i32, i32, i32, i32, i32, i32, i32, i32, i32, i32, %struct.AVChannelLayout, i32, i32, i32, i32, i32, i32, i32, i32, ptr, i32, i32, i32, float, float, i32, i32, i32, i32, i32, ptr, i64, i64, float, float, i32, i32, ptr, ptr, i32, i32, i32, i32, i32, ptr, ptr, ptr, ptr, i32, i32, [8 x i64], i32, i32, i32, i32, i32, i32, i32, ptr, ptr, i32, i32, i32, i32, i32, i32, i32, i32, i32, i32, ptr, ptr, i32, i32, ptr, ptr, ptr, ptr, i32, i32, i64, i32, i32, i64, ptr, i64, ptr, i32, ptr, i32 }
%struct.AVRational = type { i32, i32 }
%struct.AVChannelLayout = type { i32, i32, %union.anon.0, ptr }
%union.anon.0 = type { i64 }
%struct.AVPacket = type { ptr, i64, i64, ptr, i32, i32, i32, ptr, i32, i64, i64, ptr, ptr, %struct.AVRational }
%struct.AVFrame = type { [8 x ptr], [8 x i32], ptr, i32, i32, i32, i32, i32, %struct.AVRational, i64, i64, %struct.AVRational, i32, ptr, i32, i32, [8 x ptr], ptr, i32, ptr, i32, i32, i32, i32, i32, i32, i32, i64, ptr, i32, ptr, ptr, i64, i64, i64, i64, ptr, %struct.AVChannelLayout, i64 }

; Function Attrs: nounwind uwtable
define internal i32 @bitpacked_decode_yuv422p10(ptr noundef %0, ptr noundef %1, ptr noundef %2) #1 {
  %4 = alloca i32, align 4
  %5 = alloca ptr, align 8
  %6 = alloca ptr, align 8
  %7 = alloca ptr, align 8
  %8 = alloca i64, align 8
  %9 = alloca i64, align 8
  %10 = alloca ptr, align 8
  %11 = alloca ptr, align 8
  %12 = alloca ptr, align 8
  %13 = alloca ptr, align 8
  %14 = alloca i32, align 4
  %15 = alloca i32, align 4
  %16 = alloca i32, align 4
  %17 = alloca i32, align 4
  store ptr %0, ptr %5, align 8, !tbaa !4
  store ptr %1, ptr %6, align 8, !tbaa !38
  store ptr %2, ptr %7, align 8, !tbaa !41
  call void @llvm.lifetime.start.p0(i64 8, ptr %8) #4
  %18 = load ptr, ptr %5, align 8, !tbaa !4
  %19 = getelementptr inbounds nuw %struct.AVCodecContext, ptr %18, i32 0, i32 18
  %20 = load i32, ptr %19, align 8, !tbaa !32
  %21 = sext i32 %20 to i64
  %22 = load ptr, ptr %5, align 8, !tbaa !4
  %23 = getelementptr inbounds nuw %struct.AVCodecContext, ptr %22, i32 0, i32 19
  %24 = load i32, ptr %23, align 4, !tbaa !33
  %25 = sext i32 %24 to i64
  %26 = mul i64 %21, %25
  %27 = mul i64 %26, 20
  store i64 %27, ptr %8, align 8, !tbaa !49
  call void @llvm.lifetime.start.p0(i64 8, ptr %9) #4
  %28 = load ptr, ptr %7, align 8, !tbaa !41
  %29 = getelementptr inbounds nuw %struct.AVPacket, ptr %28, i32 0, i32 4
  %30 = load i32, ptr %29, align 8, !tbaa !43
  %31 = sext i32 %30 to i64
  %32 = mul i64 %31, 8
  store i64 %32, ptr %9, align 8, !tbaa !49
  call void @llvm.lifetime.start.p0(i64 8, ptr %10) #4
  call void @llvm.lifetime.start.p0(i64 8, ptr %11) #4
  call void @llvm.lifetime.start.p0(i64 8, ptr %12) #4
  call void @llvm.lifetime.start.p0(i64 8, ptr %13) #4
  call void @llvm.lifetime.start.p0(i64 4, ptr %14) #4
  call void @llvm.lifetime.start.p0(i64 4, ptr %15) #4
  call void @llvm.lifetime.start.p0(i64 4, ptr %16) #4
  %33 = load ptr, ptr %5, align 8, !tbaa !4
  %34 = load ptr, ptr %6, align 8, !tbaa !38
  %35 = call i32 @ff_thread_get_buffer(ptr noundef %33, ptr noundef %34, i32 noundef 0)
  store i32 %35, ptr %14, align 4, !tbaa !45
  %36 = load i32, ptr %14, align 4, !tbaa !45
  %37 = icmp slt i32 %36, 0
  br i1 %37, label %38, label %40

38:                                               ; preds = %3
  %39 = load i32, ptr %14, align 4, !tbaa !45
  store i32 %39, ptr %4, align 4
  store i32 1, ptr %17, align 4
  br label %174

40:                                               ; preds = %3
  %41 = load i64, ptr %8, align 8, !tbaa !49
  %42 = load i64, ptr %9, align 8, !tbaa !49
  %43 = icmp ugt i64 %41, %42
  br i1 %43, label %44, label %45

44:                                               ; preds = %40
  store i32 -1094995529, ptr %4, align 4
  store i32 1, ptr %17, align 4
  br label %174

45:                                               ; preds = %40
  %46 = load ptr, ptr %5, align 8, !tbaa !4
  %47 = getelementptr inbounds nuw %struct.AVCodecContext, ptr %46, i32 0, i32 18
  %48 = load i32, ptr %47, align 8, !tbaa !32
  %49 = srem i32 %48, 2
  %50 = icmp ne i32 %49, 0
  br i1 %50, label %51, label %52

51:                                               ; preds = %45
  store i32 -1163346256, ptr %4, align 4
  store i32 1, ptr %17, align 4
  br label %174

52:                                               ; preds = %45
  %53 = load ptr, ptr %7, align 8, !tbaa !41
  %54 = getelementptr inbounds nuw %struct.AVPacket, ptr %53, i32 0, i32 3
  %55 = load ptr, ptr %54, align 8, !tbaa !48
  store ptr %55, ptr %10, align 8, !tbaa !50
  store i32 0, ptr %15, align 4, !tbaa !45
  br label %56

56:                                               ; preds = %170, %52
  %57 = load i32, ptr %15, align 4, !tbaa !45
  %58 = load ptr, ptr %5, align 8, !tbaa !4
  %59 = getelementptr inbounds nuw %struct.AVCodecContext, ptr %58, i32 0, i32 19
  %60 = load i32, ptr %59, align 4, !tbaa !33
  %61 = icmp slt i32 %57, %60
  br i1 %61, label %62, label %173

62:                                               ; preds = %56
  %63 = load ptr, ptr %6, align 8, !tbaa !38
  %64 = getelementptr inbounds nuw %struct.AVFrame, ptr %63, i32 0, i32 0
  %65 = getelementptr inbounds [8 x ptr], ptr %64, i64 0, i64 0
  %66 = load ptr, ptr %65, align 8, !tbaa !50
  %67 = load i32, ptr %15, align 4, !tbaa !45
  %68 = load ptr, ptr %6, align 8, !tbaa !38
  %69 = getelementptr inbounds nuw %struct.AVFrame, ptr %68, i32 0, i32 1
  %70 = getelementptr inbounds [8 x i32], ptr %69, i64 0, i64 0
  %71 = load i32, ptr %70, align 8, !tbaa !45
  %72 = mul nsw i32 %67, %71
  %73 = sext i32 %72 to i64
  %74 = getelementptr inbounds i8, ptr %66, i64 %73
  store ptr %74, ptr %11, align 8, !tbaa !51
  %75 = load ptr, ptr %6, align 8, !tbaa !38
  %76 = getelementptr inbounds nuw %struct.AVFrame, ptr %75, i32 0, i32 0
  %77 = getelementptr inbounds [8 x ptr], ptr %76, i64 0, i64 1
  %78 = load ptr, ptr %77, align 8, !tbaa !50
  %79 = load i32, ptr %15, align 4, !tbaa !45
  %80 = load ptr, ptr %6, align 8, !tbaa !38
  %81 = getelementptr inbounds nuw %struct.AVFrame, ptr %80, i32 0, i32 1
  %82 = getelementptr inbounds [8 x i32], ptr %81, i64 0, i64 1
  %83 = load i32, ptr %82, align 4, !tbaa !45
  %84 = mul nsw i32 %79, %83
  %85 = sext i32 %84 to i64
  %86 = getelementptr inbounds i8, ptr %78, i64 %85
  store ptr %86, ptr %12, align 8, !tbaa !51
  %87 = load ptr, ptr %6, align 8, !tbaa !38
  %88 = getelementptr inbounds nuw %struct.AVFrame, ptr %87, i32 0, i32 0
  %89 = getelementptr inbounds [8 x ptr], ptr %88, i64 0, i64 2
  %90 = load ptr, ptr %89, align 8, !tbaa !50
  %91 = load i32, ptr %15, align 4, !tbaa !45
  %92 = load ptr, ptr %6, align 8, !tbaa !38
  %93 = getelementptr inbounds nuw %struct.AVFrame, ptr %92, i32 0, i32 1
  %94 = getelementptr inbounds [8 x i32], ptr %93, i64 0, i64 2
  %95 = load i32, ptr %94, align 8, !tbaa !45
  %96 = mul nsw i32 %91, %95
  %97 = sext i32 %96 to i64
  %98 = getelementptr inbounds i8, ptr %90, i64 %97
  store ptr %98, ptr %13, align 8, !tbaa !51
  store i32 0, ptr %16, align 4, !tbaa !45
  br label %99

99:                                               ; preds = %166, %62
  %100 = load i32, ptr %16, align 4, !tbaa !45
  %101 = load ptr, ptr %5, align 8, !tbaa !4
  %102 = getelementptr inbounds nuw %struct.AVCodecContext, ptr %101, i32 0, i32 18
  %103 = load i32, ptr %102, align 8, !tbaa !32
  %104 = icmp slt i32 %100, %103
  br i1 %104, label %105, label %169

105:                                              ; preds = %99
  %106 = load ptr, ptr %10, align 8, !tbaa !50
  %107 = getelementptr inbounds i8, ptr %106, i64 0
  %108 = load i8, ptr %107, align 1, !tbaa !52
  %109 = zext i8 %108 to i32
  %110 = shl i32 %109, 2
  %111 = load ptr, ptr %10, align 8, !tbaa !50
  %112 = getelementptr inbounds i8, ptr %111, i64 1
  %113 = load i8, ptr %112, align 1, !tbaa !52
  %114 = zext i8 %113 to i32
  %115 = ashr i32 %114, 6
  %116 = or i32 %110, %115
  %117 = trunc i32 %116 to i16
  %118 = load ptr, ptr %12, align 8, !tbaa !51
  %119 = getelementptr inbounds nuw i16, ptr %118, i32 1
  store ptr %119, ptr %12, align 8, !tbaa !51
  store i16 %117, ptr %118, align 2, !tbaa !53
  %120 = load ptr, ptr %10, align 8, !tbaa !50
  %121 = getelementptr inbounds i8, ptr %120, i64 2
  %122 = load i8, ptr %121, align 1, !tbaa !52
  %123 = zext i8 %122 to i32
  %124 = shl i32 %123, 6
  %125 = load ptr, ptr %10, align 8, !tbaa !50
  %126 = getelementptr inbounds i8, ptr %125, i64 3
  %127 = load i8, ptr %126, align 1, !tbaa !52
  %128 = zext i8 %127 to i32
  %129 = ashr i32 %128, 2
  %130 = or i32 %124, %129
  %131 = and i32 %130, 1023
  %132 = trunc i32 %131 to i16
  %133 = load ptr, ptr %13, align 8, !tbaa !51
  %134 = getelementptr inbounds nuw i16, ptr %133, i32 1
  store ptr %134, ptr %13, align 8, !tbaa !51
  store i16 %132, ptr %133, align 2, !tbaa !53
  %135 = load ptr, ptr %10, align 8, !tbaa !50
  %136 = getelementptr inbounds i8, ptr %135, i64 1
  %137 = load i8, ptr %136, align 1, !tbaa !52
  %138 = zext i8 %137 to i32
  %139 = shl i32 %138, 4
  %140 = load ptr, ptr %10, align 8, !tbaa !50
  %141 = getelementptr inbounds i8, ptr %140, i64 2
  %142 = load i8, ptr %141, align 1, !tbaa !52
  %143 = zext i8 %142 to i32
  %144 = ashr i32 %143, 4
  %145 = or i32 %139, %144
  %146 = and i32 %145, 1023
  %147 = trunc i32 %146 to i16
  %148 = load ptr, ptr %11, align 8, !tbaa !51
  %149 = getelementptr inbounds nuw i16, ptr %148, i32 1
  store ptr %149, ptr %11, align 8, !tbaa !51
  store i16 %147, ptr %148, align 2, !tbaa !53
  %150 = load ptr, ptr %10, align 8, !tbaa !50
  %151 = getelementptr inbounds i8, ptr %150, i64 3
  %152 = load i8, ptr %151, align 1, !tbaa !52
  %153 = zext i8 %152 to i32
  %154 = shl i32 %153, 8
  %155 = load ptr, ptr %10, align 8, !tbaa !50
  %156 = getelementptr inbounds i8, ptr %155, i64 4
  %157 = load i8, ptr %156, align 1, !tbaa !52
  %158 = zext i8 %157 to i32
  %159 = or i32 %154, %158
  %160 = and i32 %159, 1023
  %161 = trunc i32 %160 to i16
  %162 = load ptr, ptr %11, align 8, !tbaa !51
  %163 = getelementptr inbounds nuw i16, ptr %162, i32 1
  store ptr %163, ptr %11, align 8, !tbaa !51
  store i16 %161, ptr %162, align 2, !tbaa !53
  %164 = load ptr, ptr %10, align 8, !tbaa !50
  %165 = getelementptr inbounds i8, ptr %164, i64 5
  store ptr %165, ptr %10, align 8, !tbaa !50
  br label %166

166:                                              ; preds = %105
  %167 = load i32, ptr %16, align 4, !tbaa !45
  %168 = add nsw i32 %167, 2
  store i32 %168, ptr %16, align 4, !tbaa !45
  br label %99, !llvm.loop !55

169:                                              ; preds = %99
  br label %170

170:                                              ; preds = %169
  %171 = load i32, ptr %15, align 4, !tbaa !45
  %172 = add nsw i32 %171, 1
  store i32 %172, ptr %15, align 4, !tbaa !45
  br label %56, !llvm.loop !57

173:                                              ; preds = %56
  store i32 0, ptr %4, align 4
  store i32 1, ptr %17, align 4
  br label %174

174:                                              ; preds = %173, %51, %44, %38
  call void @llvm.lifetime.end.p0(i64 4, ptr %16) #4
  call void @llvm.lifetime.end.p0(i64 4, ptr %15) #4
  call void @llvm.lifetime.end.p0(i64 4, ptr %14) #4
  call void @llvm.lifetime.end.p0(i64 8, ptr %13) #4
  call void @llvm.lifetime.end.p0(i64 8, ptr %12) #4
  call void @llvm.lifetime.end.p0(i64 8, ptr %11) #4
  call void @llvm.lifetime.end.p0(i64 8, ptr %10) #4
  call void @llvm.lifetime.end.p0(i64 8, ptr %9) #4
  call void @llvm.lifetime.end.p0(i64 8, ptr %8) #4
  %175 = load i32, ptr %4, align 4
  ret i32 %175
}