; Function Attrs: nounwind uwtable
define internal range(i32 -2147483648, 1) i32 @bitpacked_decode_yuv422p10(ptr noundef %0, ptr noundef %1, ptr noundef readonly captures(none) %2) #1 {
  %4 = getelementptr inbounds nuw i8, ptr %0, i64 112
  %5 = load i32, ptr %4, align 8, !tbaa !28
  %6 = getelementptr inbounds nuw i8, ptr %0, i64 116
  %7 = load i32, ptr %6, align 4, !tbaa !29
  %8 = getelementptr inbounds nuw i8, ptr %2, i64 32
  %9 = load i32, ptr %8, align 8, !tbaa !34
  %10 = tail call i32 @ff_thread_get_buffer(ptr noundef %0, ptr noundef %1, i32 noundef 0) #3
  %11 = icmp slt i32 %10, 0
  br i1 %11, label %.loopexit, label %12

12:                                               ; preds = %3
  %13 = sext i32 %9 to i64
  %14 = shl nsw i64 %13, 3
  %15 = sext i32 %5 to i64
  %16 = sext i32 %7 to i64
  %17 = mul nsw i64 %15, 20
  %18 = mul i64 %17, %16
  %19 = icmp ugt i64 %18, %14
  br i1 %19, label %.loopexit, label %20

20:                                               ; preds = %12
  %21 = load i32, ptr %4, align 8, !tbaa !28
  %22 = and i32 %21, 1
  %.not = icmp eq i32 %22, 0
  br i1 %.not, label %23, label %.loopexit

23:                                               ; preds = %20
  %24 = load i32, ptr %6, align 4, !tbaa !29
  %25 = icmp sgt i32 %24, 0
  br i1 %25, label %.lr.ph56, label %.loopexit

.lr.ph56:                                         ; preds = %23
  %26 = load ptr, ptr %1, align 8, !tbaa !40
  %27 = getelementptr inbounds nuw i8, ptr %1, i64 8
  %28 = load ptr, ptr %27, align 8, !tbaa !40
  %29 = getelementptr inbounds nuw i8, ptr %1, i64 16
  %30 = load ptr, ptr %29, align 8, !tbaa !40
  %31 = icmp sgt i32 %21, 0
  br i1 %31, label %.lr.ph.us.preheader, label %.loopexit

.lr.ph.us.preheader:                              ; preds = %.lr.ph56
  %32 = getelementptr inbounds nuw i8, ptr %1, i64 72
  %33 = load i32, ptr %32, align 8, !tbaa !36
  %34 = getelementptr inbounds nuw i8, ptr %1, i64 68
  %35 = load i32, ptr %34, align 4, !tbaa !36
  %36 = getelementptr inbounds nuw i8, ptr %1, i64 64
  %37 = load i32, ptr %36, align 8, !tbaa !36
  %38 = getelementptr inbounds nuw i8, ptr %2, i64 24
  %39 = load ptr, ptr %38, align 8, !tbaa !39
  %40 = sext i32 %37 to i64
  %41 = sext i32 %35 to i64
  %42 = sext i32 %33 to i64
  %wide.trip.count = zext nneg i32 %24 to i64
  br label %.lr.ph.us

.lr.ph.us:                                        ; preds = %.lr.ph.us.preheader, %._crit_edge.us
  %indvars.iv = phi i64 [ 0, %.lr.ph.us.preheader ], [ %indvars.iv.next, %._crit_edge.us ]
  %.04453.us = phi ptr [ %39, %.lr.ph.us.preheader ], [ %85, %._crit_edge.us ]
  %43 = mul nsw i64 %indvars.iv, %40
  %44 = getelementptr inbounds i8, ptr %26, i64 %43
  %45 = mul nsw i64 %indvars.iv, %41
  %46 = getelementptr inbounds i8, ptr %28, i64 %45
  %47 = mul nsw i64 %indvars.iv, %42
  %48 = getelementptr inbounds i8, ptr %30, i64 %47
  br label %49

49:                                               ; preds = %.lr.ph.us, %49
  %.052.us = phi i32 [ 0, %.lr.ph.us ], [ %86, %49 ]
  %.04151.us = phi ptr [ %48, %.lr.ph.us ], [ %68, %49 ]
  %.04250.us = phi ptr [ %46, %.lr.ph.us ], [ %58, %49 ]
  %.04349.us = phi ptr [ %44, %.lr.ph.us ], [ %84, %49 ]
  %.148.us = phi ptr [ %.04453.us, %.lr.ph.us ], [ %85, %49 ]
  %50 = load i8, ptr %.148.us, align 1, !tbaa !41
  %51 = zext i8 %50 to i16
  %52 = shl nuw nsw i16 %51, 2
  %53 = getelementptr inbounds nuw i8, ptr %.148.us, i64 1
  %54 = load i8, ptr %53, align 1, !tbaa !41
  %55 = lshr i8 %54, 6
  %56 = zext nneg i8 %55 to i16
  %57 = or disjoint i16 %52, %56
  %58 = getelementptr inbounds nuw i8, ptr %.04250.us, i64 2
  store i16 %57, ptr %.04250.us, align 2, !tbaa !42
  %59 = getelementptr inbounds nuw i8, ptr %.148.us, i64 2
  %60 = load i8, ptr %59, align 1, !tbaa !41
  %61 = zext i8 %60 to i16
  %62 = shl nuw nsw i16 %61, 6
  %63 = getelementptr inbounds nuw i8, ptr %.148.us, i64 3
  %64 = load i8, ptr %63, align 1, !tbaa !41
  %65 = lshr i8 %64, 2
  %66 = zext nneg i8 %65 to i16
  %.masked.us = and i16 %62, 960
  %67 = or disjoint i16 %.masked.us, %66
  %68 = getelementptr inbounds nuw i8, ptr %.04151.us, i64 2
  store i16 %67, ptr %.04151.us, align 2, !tbaa !42
  %69 = load i8, ptr %53, align 1, !tbaa !41
  %70 = zext i8 %69 to i16
  %71 = shl nuw nsw i16 %70, 4
  %72 = load i8, ptr %59, align 1, !tbaa !41
  %73 = lshr i8 %72, 4
  %74 = zext nneg i8 %73 to i16
  %.masked46.us = and i16 %71, 1008
  %75 = or disjoint i16 %.masked46.us, %74
  %76 = getelementptr inbounds nuw i8, ptr %.04349.us, i64 2
  store i16 %75, ptr %.04349.us, align 2, !tbaa !42
  %77 = load i8, ptr %63, align 1, !tbaa !41
  %78 = zext i8 %77 to i16
  %79 = shl nuw i16 %78, 8
  %80 = getelementptr inbounds nuw i8, ptr %.148.us, i64 4
  %81 = load i8, ptr %80, align 1, !tbaa !41
  %82 = zext i8 %81 to i16
  %.masked47.us = and i16 %79, 768
  %83 = or disjoint i16 %.masked47.us, %82
  %84 = getelementptr inbounds nuw i8, ptr %.04349.us, i64 4
  store i16 %83, ptr %76, align 2, !tbaa !42
  %85 = getelementptr inbounds nuw i8, ptr %.148.us, i64 5
  %86 = add nuw nsw i32 %.052.us, 2
  %87 = icmp slt i32 %86, %21
  br i1 %87, label %49, label %._crit_edge.us, !llvm.loop !44

._crit_edge.us:                                   ; preds = %49
  %indvars.iv.next = add nuw nsw i64 %indvars.iv, 1
  %exitcond.not = icmp eq i64 %indvars.iv.next, %wide.trip.count
  br i1 %exitcond.not, label %.loopexit, label %.lr.ph.us, !llvm.loop !46

.loopexit:                                        ; preds = %._crit_edge.us, %.lr.ph56, %23, %20, %12, %3
  %.040 = phi i32 [ %10, %3 ], [ -1094995529, %12 ], [ -1163346256, %20 ], [ 0, %23 ], [ 0, %.lr.ph56 ], [ 0, %._crit_edge.us ]
  ret i32 %.040
}